target datalayout = "e-m:e-p270:32:32-p271:32:32-p272:64:64-i64:64-i128:128-f80:128-n8:16:32:64-S128"
target triple = "x86_64-pc-linux-gnu"

%struct.commandline_param_info = type { ptr, i32, i32, ptr, ptr, ptr, ptr, i8, ptr }

@ws_opterr = external global i32, align 4
@optstring = internal constant [65 x i8] c"a:b:B:c:Df:F:i:ILps:y:d:K:nN:R:t:u:Y:r:C:g:HhjJ:klm:o:P:Svw:X:z:\00", align 16
@ws_optarg = external global ptr, align 8
@ws_optreset = external global i32, align 4
@ws_optind = external global i32, align 4
@global_commandline_info = hidden global %struct.commandline_param_info zeroinitializer, align 8
@.str.14 = private unnamed_addr constant [13 x i8] c"go to packet\00", align 1
@.str.15 = private unnamed_addr constant [5 x i8] c"help\00", align 1
@stderr = external global ptr, align 8
@.str.16 = private unnamed_addr constant [55 x i8] c"%s: The available statistics for the \22-z\22 option are:\0A\00", align 1
@.str.17 = private unnamed_addr constant [21 x i8] c"Invalid -z argument.\00", align 1
@.str.18 = private unnamed_addr constant [31 x i8] c"  -z argument must be one of :\00", align 1
@.str.19 = private unnamed_addr constant [54 x i8] c"File name specified both with -r and regular argument\00", align 1
@.str.20 = private unnamed_addr constant [21 x i8] c"Invalid argument: %s\00", align 1

; Function Attrs: null_pointer_is_valid sspstrong uwtable
define hidden void @commandline_other_options(i32 noundef %0, ptr noundef %1, i1 noundef zeroext %2) #0 {
  %4 = alloca i32, align 4
  %5 = alloca ptr, align 8
  %6 = alloca i8, align 1
  %7 = alloca i32, align 4
  %8 = alloca i8, align 1
  %9 = alloca i8, align 1
  store i32 %0, ptr %4, align 4
  store ptr %1, ptr %5, align 8
  %10 = zext i1 %2 to i8
  store i8 %10, ptr %6, align 1
  call void @llvm.lifetime.start.p0(i64 4, ptr %7) #9
  call void @llvm.lifetime.start.p0(i64 1, ptr %8) #9
  store i8 0, ptr %8, align 1
  call void @llvm.lifetime.start.p0(i64 1, ptr %9) #9
  %11 = load i8, ptr %6, align 1, !range !8, !noundef !9
  %12 = trunc i8 %11 to i1
  br i1 %12, label %13, label %14

13:                                               ; preds = %3
  store i32 1, ptr @ws_optreset, align 4
  store i32 1, ptr @ws_optind, align 4
  store i32 1, ptr @ws_opterr, align 4
  br label %14

14:                                               ; preds = %13, %3
  store i32 0, ptr getelementptr inbounds nuw (%struct.commandline_param_info, ptr @global_commandline_info, i32 0, i32 1), align 8
  store i32 0, ptr getelementptr inbounds nuw (%struct.commandline_param_info, ptr @global_commandline_info, i32 0, i32 2), align 4
  store ptr null, ptr getelementptr inbounds nuw (%struct.commandline_param_info, ptr @global_commandline_info, i32 0, i32 3), align 8
  store ptr null, ptr getelementptr inbounds nuw (%struct.commandline_param_info, ptr @global_commandline_info, i32 0, i32 4), align 8
  store ptr null, ptr getelementptr inbounds nuw (%struct.commandline_param_info, ptr @global_commandline_info, i32 0, i32 5), align 8
  store ptr null, ptr getelementptr inbounds nuw (%struct.commandline_param_info, ptr @global_commandline_info, i32 0, i32 6), align 8
  store i8 0, ptr getelementptr inbounds nuw (%struct.commandline_param_info, ptr @global_commandline_info, i32 0, i32 7), align 8
  br label %15

15:                                               ; preds = %62, %14
  %16 = load i32, ptr %4, align 4
  %17 = load ptr, ptr %5, align 8
  %18 = call i32 @ws_getopt_long(i32 noundef %16, ptr noundef %17, ptr noundef @optstring, ptr noundef @long_options, ptr noundef null)
  store i32 %18, ptr %7, align 4
  %19 = icmp ne i32 %18, -1
  br i1 %19, label %20, label %63

20:                                               ; preds = %15
  %21 = load i32, ptr %7, align 4
  switch i32 %21, label %60 [
    i32 97, label %22
    i32 98, label %22
    i32 99, label %22
    i32 102, label %22
    i32 70, label %22
    i32 72, label %22
    i32 112, label %22
    i32 105, label %22
    i32 1002, label %22
    i32 1004, label %22
    i32 1005, label %22
    i32 73, label %22
    i32 115, label %22
    i32 83, label %22
    i32 119, label %22
    i32 121, label %22
    i32 66, label %22
    i32 67, label %62
    i32 106, label %23
    i32 103, label %24
    i32 74, label %27
    i32 107, label %29
    i32 108, label %30
    i32 76, label %31
    i32 1001, label %32
    i32 111, label %62
    i32 80, label %62
    i32 114, label %33
    i32 82, label %36
    i32 88, label %62
    i32 89, label %38
    i32 122, label %40
    i32 100, label %53
    i32 75, label %53
    i32 110, label %53
    i32 78, label %53
    i32 116, label %53
    i32 117, label %53
    i32 2001, label %53
    i32 2002, label %53
    i32 2003, label %53
    i32 2004, label %53
    i32 2005, label %53
    i32 2006, label %53
    i32 4001, label %59
    i32 63, label %61
  ]

22:                                               ; preds = %20, %20, %20, %20, %20, %20, %20, %20, %20, %20, %20, %20, %20, %20, %20, %20, %20
  store i8 1, ptr %9, align 1
  store i8 1, ptr %8, align 1
  br label %62

23:                                               ; preds = %20
  store i32 1, ptr getelementptr inbounds nuw (%struct.commandline_param_info, ptr @global_commandline_info, i32 0, i32 1), align 8
  br label %62

24:                                               ; preds = %20
  %25 = load ptr, ptr @ws_optarg, align 8
  %26 = call i32 @get_nonzero_uint32(ptr noundef %25, ptr noundef @.str.14)
  store i32 %26, ptr getelementptr inbounds nuw (%struct.commandline_param_info, ptr @global_commandline_info, i32 0, i32 2), align 4
  br label %62

27:                                               ; preds = %20
  %28 = load ptr, ptr @ws_optarg, align 8
  store ptr %28, ptr getelementptr inbounds nuw (%struct.commandline_param_info, ptr @global_commandline_info, i32 0, i32 3), align 8
  br label %62

29:                                               ; preds = %20
  store i8 1, ptr %9, align 1
  store i8 1, ptr %8, align 1
  br label %62

30:                                               ; preds = %20
  store i8 1, ptr %9, align 1
  store i8 1, ptr %8, align 1
  br label %62

31:                                               ; preds = %20
  store i8 1, ptr %9, align 1
  store i8 1, ptr %8, align 1
  br label %62

32:                                               ; preds = %20
  store i8 1, ptr %9, align 1
  store i8 1, ptr %8, align 1
  br label %62

33:                                               ; preds = %20
  %34 = load ptr, ptr @ws_optarg, align 8
  %35 = call noalias ptr @g_strdup(ptr noundef %34)
  store ptr %35, ptr getelementptr inbounds nuw (%struct.commandline_param_info, ptr @global_commandline_info, i32 0, i32 4), align 8
  br label %62

36:                                               ; preds = %20
  %37 = load ptr, ptr @ws_optarg, align 8
  store ptr %37, ptr getelementptr inbounds nuw (%struct.commandline_param_info, ptr @global_commandline_info, i32 0, i32 5), align 8
  br label %62

38:                                               ; preds = %20
  %39 = load ptr, ptr @ws_optarg, align 8
  store ptr %39, ptr getelementptr inbounds nuw (%struct.commandline_param_info, ptr @global_commandline_info, i32 0, i32 6), align 8
  br label %62

40:                                               ; preds = %20
  %41 = load ptr, ptr @ws_optarg, align 8
  %42 = call i32 @strcmp(ptr noundef @.str.15, ptr noundef %41) #13
  %43 = icmp eq i32 %42, 0
  br i1 %43, label %44, label %48

44:                                               ; preds = %40
  %45 = load ptr, ptr @stderr, align 8
  %46 = call ptr @g_get_prgname()
  %47 = call i32 (ptr, i32, ptr, ...) @__fprintf_chk(ptr noundef %45, i32 noundef 2, ptr noundef @.str.16, ptr noundef %46)
  call void @list_stat_cmd_args()
  call void @exit_application(i32 noundef 0) #12
  unreachable

48:                                               ; preds = %40
  %49 = load ptr, ptr @ws_optarg, align 8
  %50 = call zeroext i1 @process_stat_cmd_arg(ptr noundef %49)
  br i1 %50, label %52, label %51

51:                                               ; preds = %48
  call void (ptr, ...) @cmdarg_err(ptr noundef @.str.17)
  call void (ptr, ...) @cmdarg_err_cont(ptr noundef @.str.18)
  call void @list_stat_cmd_args()
  call void @exit_application(i32 noundef 1) #12
  unreachable

52:                                               ; preds = %48
  br label %62

53:                                               ; preds = %20, %20, %20, %20, %20, %20, %20, %20, %20, %20, %20, %20
  %54 = load i32, ptr %7, align 4
  %55 = load ptr, ptr @ws_optarg, align 8
  %56 = call zeroext i1 @dissect_opts_handle_opt(i32 noundef %54, ptr noundef %55)
  br i1 %56, label %58, label %57

57:                                               ; preds = %53
  call void @exit_application(i32 noundef 1) #12
  unreachable

58:                                               ; preds = %53
  br label %62

59:                                               ; preds = %20
  store i8 1, ptr getelementptr inbounds nuw (%struct.commandline_param_info, ptr @global_commandline_info, i32 0, i32 7), align 8
  br label %62

60:                                               ; preds = %20
  br label %61

61:                                               ; preds = %20, %60
  store i8 1, ptr %8, align 1
  br label %62

62:                                               ; preds = %61, %59, %58, %20, %20, %20, %20, %52, %38, %36, %33, %32, %31, %30, %29, %27, %24, %23, %22
  br label %15, !llvm.loop !11

63:                                               ; preds = %15
  %64 = load i8, ptr %8, align 1, !range !8, !noundef !9
  %65 = trunc i8 %64 to i1
  br i1 %65, label %98, label %66

66:                                               ; preds = %63
  %67 = load i32, ptr @ws_optind, align 4
  %68 = load i32, ptr %4, align 4
  %69 = sub i32 %68, %67
  store i32 %69, ptr %4, align 4
  %70 = load i32, ptr @ws_optind, align 4
  %71 = load ptr, ptr %5, align 8
  %72 = sext i32 %70 to i64
  %73 = getelementptr ptr, ptr %71, i64 %72
  store ptr %73, ptr %5, align 8
  %74 = load i32, ptr %4, align 4
  %75 = icmp sge i32 %74, 1
  br i1 %75, label %76, label %90

76:                                               ; preds = %66
  %77 = load ptr, ptr getelementptr inbounds nuw (%struct.commandline_param_info, ptr @global_commandline_info, i32 0, i32 4), align 8
  %78 = icmp ne ptr %77, null
  br i1 %78, label %79, label %80

79:                                               ; preds = %76
  call void (ptr, ...) @cmdarg_err(ptr noundef @.str.19)
  store i8 1, ptr %8, align 1
  br label %85

80:                                               ; preds = %76
  %81 = load ptr, ptr %5, align 8
  %82 = getelementptr ptr, ptr %81, i64 0
  %83 = load ptr, ptr %82, align 8
  %84 = call noalias ptr @g_strdup(ptr noundef %83)
  store ptr %84, ptr getelementptr inbounds nuw (%struct.commandline_param_info, ptr @global_commandline_info, i32 0, i32 4), align 8
  br label %85

85:                                               ; preds = %80, %79
  %86 = load i32, ptr %4, align 4
  %87 = add i32 %86, -1
  store i32 %87, ptr %4, align 4
  %88 = load ptr, ptr %5, align 8
  %89 = getelementptr ptr, ptr %88, i32 1
  store ptr %89, ptr %5, align 8
  br label %90

90:                                               ; preds = %85, %66
  %91 = load i32, ptr %4, align 4
  %92 = icmp ne i32 %91, 0
  br i1 %92, label %93, label %97

93:                                               ; preds = %90
  %94 = load ptr, ptr %5, align 8
  %95 = getelementptr ptr, ptr %94, i64 0
  %96 = load ptr, ptr %95, align 8
  call void (ptr, ...) @cmdarg_err(ptr noundef @.str.20, ptr noundef %96)
  store i8 1, ptr %8, align 1
  br label %97

97:                                               ; preds = %93, %90
  br label %98

98:                                               ; preds = %97, %63
  %99 = load i8, ptr %8, align 1, !range !8, !noundef !9
  %100 = trunc i8 %99 to i1
  br i1 %100, label %101, label %106

101:                                              ; preds = %98
  %102 = load i8, ptr %9, align 1, !range !8, !noundef !9
  %103 = trunc i8 %102 to i1
  br i1 %103, label %104, label %105

104:                                              ; preds = %101
  call void @print_no_capture_support_error()
  br label %105

105:                                              ; preds = %104, %101
  call void @commandline_print_usage(i1 noundef zeroext false)
  call void @exit_application(i32 noundef 1) #12
  unreachable

106:                                              ; preds = %98
  call void @llvm.lifetime.end.p0(i64 1, ptr %9) #9
  call void @llvm.lifetime.end.p0(i64 1, ptr %8) #9
  call void @llvm.lifetime.end.p0(i64 4, ptr %7) #9
  ret void
}