; Function Attrs: null_pointer_is_valid sspstrong uwtable
define hidden void @commandline_other_options(i32 noundef %0, ptr noundef %1, i1 noundef zeroext %2) local_unnamed_addr #0 {
  br i1 %2, label %4, label %5

4:                                                ; preds = %3
  store i32 1, ptr @ws_optreset, align 4
  store i32 1, ptr @ws_optind, align 4
  store i32 1, ptr @ws_opterr, align 4
  br label %5

5:                                                ; preds = %4, %3
  tail call void @llvm.memset.p0.i64(ptr noundef nonnull align 8 dereferenceable(41) getelementptr inbounds nuw (i8, ptr @global_commandline_info, i64 8), i8 0, i64 41, i1 false)
  br label %6

6:                                                ; preds = %.backedge, %5
  %.015 = phi i1 [ false, %5 ], [ %.015.be, %.backedge ]
  %7 = tail call i32 @ws_getopt_long(i32 noundef %0, ptr noundef %1, ptr noundef nonnull @optstring, ptr noundef nonnull @long_options, ptr noundef null)
  switch i32 %7, label %38 [
    i32 -1, label %39
    i32 97, label %8
    i32 98, label %8
    i32 99, label %8
    i32 102, label %8
    i32 70, label %8
    i32 72, label %8
    i32 112, label %8
    i32 105, label %8
    i32 1002, label %8
    i32 1004, label %8
    i32 1005, label %8
    i32 73, label %8
    i32 115, label %8
    i32 83, label %8
    i32 119, label %8
    i32 121, label %8
    i32 66, label %8
    i32 67, label %.backedge
    i32 106, label %9
    i32 103, label %10
    i32 74, label %13
    i32 4001, label %37
    i32 2006, label %33
    i32 2005, label %33
    i32 2004, label %33
    i32 111, label %.backedge
    i32 80, label %.backedge
    i32 114, label %15
    i32 82, label %18
    i32 88, label %.backedge
    i32 89, label %20
    i32 122, label %22
    i32 100, label %33
    i32 75, label %33
    i32 110, label %33
    i32 78, label %33
    i32 116, label %33
    i32 117, label %33
    i32 2001, label %33
    i32 2002, label %33
    i32 2003, label %33
  ]

.backedge:                                        ; preds = %6, %6, %6, %6, %33, %30, %38, %37, %20, %18, %15, %13, %10, %9, %8
  %.015.be = phi i1 [ true, %38 ], [ %.015, %37 ], [ %.015, %33 ], [ %.015, %30 ], [ %.015, %20 ], [ %.015, %18 ], [ %.015, %15 ], [ %.015, %13 ], [ %.015, %10 ], [ %.015, %9 ], [ true, %8 ], [ %.015, %6 ], [ %.015, %6 ], [ %.015, %6 ], [ %.015, %6 ]
  br label %6, !llvm.loop !9

8:                                                ; preds = %6, %6, %6, %6, %6, %6, %6, %6, %6, %6, %6, %6, %6, %6, %6, %6, %6
  br label %.backedge

9:                                                ; preds = %6
  store i32 1, ptr getelementptr inbounds nuw (i8, ptr @global_commandline_info, i64 8), align 8
  br label %.backedge

10:                                               ; preds = %6
  %11 = load ptr, ptr @ws_optarg, align 8
  %12 = tail call i32 @get_nonzero_uint32(ptr noundef %11, ptr noundef nonnull @.str.14)
  store i32 %12, ptr getelementptr inbounds nuw (i8, ptr @global_commandline_info, i64 12), align 4
  br label %.backedge

13:                                               ; preds = %6
  %14 = load ptr, ptr @ws_optarg, align 8
  store ptr %14, ptr getelementptr inbounds nuw (i8, ptr @global_commandline_info, i64 16), align 8
  br label %.backedge

15:                                               ; preds = %6
  %16 = load ptr, ptr @ws_optarg, align 8
  %17 = tail call noalias ptr @g_strdup(ptr noundef %16)
  store ptr %17, ptr getelementptr inbounds nuw (i8, ptr @global_commandline_info, i64 24), align 8
  br label %.backedge

18:                                               ; preds = %6
  %19 = load ptr, ptr @ws_optarg, align 8
  store ptr %19, ptr getelementptr inbounds nuw (i8, ptr @global_commandline_info, i64 32), align 8
  br label %.backedge

20:                                               ; preds = %6
  %21 = load ptr, ptr @ws_optarg, align 8
  store ptr %21, ptr getelementptr inbounds nuw (i8, ptr @global_commandline_info, i64 40), align 8
  br label %.backedge

22:                                               ; preds = %6
  %23 = load ptr, ptr @ws_optarg, align 8
  %24 = tail call i32 @strcmp(ptr noundef nonnull dereferenceable(5) @.str.15, ptr noundef %23) #14
  %25 = icmp eq i32 %24, 0
  br i1 %25, label %26, label %30

26:                                               ; preds = %22
  %27 = load ptr, ptr @stderr, align 8
  %28 = tail call ptr @g_get_prgname()
  %29 = tail call i32 (ptr, i32, ptr, ...) @__fprintf_chk(ptr noundef %27, i32 noundef 2, ptr noundef nonnull @.str.16, ptr noundef %28)
  tail call void @list_stat_cmd_args()
  tail call void @exit_application(i32 noundef 0) #13
  unreachable

30:                                               ; preds = %22
  %31 = tail call zeroext i1 @process_stat_cmd_arg(ptr noundef %23)
  br i1 %31, label %.backedge, label %32

32:                                               ; preds = %30
  tail call void (ptr, ...) @cmdarg_err(ptr noundef nonnull @.str.17)
  tail call void (ptr, ...) @cmdarg_err_cont(ptr noundef nonnull @.str.18)
  tail call void @list_stat_cmd_args()
  tail call void @exit_application(i32 noundef 1) #13
  unreachable

33:                                               ; preds = %6, %6, %6, %6, %6, %6, %6, %6, %6, %6, %6, %6
  %34 = load ptr, ptr @ws_optarg, align 8
  %35 = tail call zeroext i1 @dissect_opts_handle_opt(i32 noundef %7, ptr noundef %34)
  br i1 %35, label %.backedge, label %36

36:                                               ; preds = %33
  tail call void @exit_application(i32 noundef 1) #13
  unreachable

37:                                               ; preds = %6
  store i8 1, ptr getelementptr inbounds nuw (i8, ptr @global_commandline_info, i64 48), align 8
  br label %.backedge

38:                                               ; preds = %6
  br label %.backedge

39:                                               ; preds = %6
  br i1 %.015, label %.thread, label %40

40:                                               ; preds = %39
  %41 = load i32, ptr @ws_optind, align 4
  %42 = sub i32 %0, %41
  %43 = sext i32 %41 to i64
  %44 = getelementptr ptr, ptr %1, i64 %43
  %45 = icmp sgt i32 %42, 0
  br i1 %45, label %46, label %.thread31

46:                                               ; preds = %40
  %47 = load ptr, ptr getelementptr inbounds nuw (i8, ptr @global_commandline_info, i64 24), align 8
  %.not22.not = icmp eq ptr %47, null
  br i1 %.not22.not, label %49, label %48

48:                                               ; preds = %46
  tail call void (ptr, ...) @cmdarg_err(ptr noundef nonnull @.str.19)
  br label %52

49:                                               ; preds = %46
  %50 = load ptr, ptr %44, align 8
  %51 = tail call noalias ptr @g_strdup(ptr noundef %50)
  store ptr %51, ptr getelementptr inbounds nuw (i8, ptr @global_commandline_info, i64 24), align 8
  br label %52

52:                                               ; preds = %48, %49
  %53 = getelementptr i8, ptr %44, i64 8
  %.not23 = icmp eq i32 %42, 1
  br i1 %.not23, label %56, label %54

.thread31:                                        ; preds = %40
  %.not2335 = icmp eq i32 %0, %41
  br i1 %.not2335, label %.thread38, label %54

54:                                               ; preds = %.thread31, %52
  %.01836 = phi ptr [ %44, %.thread31 ], [ %53, %52 ]
  %55 = load ptr, ptr %.01836, align 8
  tail call void (ptr, ...) @cmdarg_err(ptr noundef nonnull @.str.20, ptr noundef %55)
  br label %.thread

56:                                               ; preds = %52
  br i1 %.not22.not, label %.thread38, label %.thread

.thread:                                          ; preds = %54, %39, %56
  tail call fastcc void @print_no_capture_support_error()
  tail call fastcc void @commandline_print_usage(i1 noundef zeroext false)
  tail call void @exit_application(i32 noundef 1) #13
  unreachable

.thread38:                                        ; preds = %.thread31, %56
  ret void
}